target datalayout = "e-m:e-p270:32:32-p271:32:32-p272:64:64-i64:64-i128:128-f80:128-n8:16:32:64-S128"
target triple = "x86_64-pc-linux-gnu"

%struct.mbedtls_lms_public_t = type { %struct.mbedtls_lms_parameters_t, [32 x i8], i8 }
%struct.mbedtls_lms_parameters_t = type { [16 x i8], i32, i32 }

; Function Attrs: alwaysinline nounwind uwtable
define internal i32 @mbedtls_get_unaligned_uint32(ptr noundef %0) #4 {
  %2 = alloca ptr, align 8
  %3 = alloca i32, align 4
  store ptr %0, ptr %2, align 8, !tbaa !3
  call void @llvm.lifetime.start.p0(i64 4, ptr %3) #9
  %4 = load ptr, ptr %2, align 8, !tbaa !3
  call void @llvm.memcpy.p0.p0.i64(ptr align 4 %3, ptr align 1 %4, i64 4, i1 false)
  %5 = load i32, ptr %3, align 4, !tbaa !11
  call void @llvm.lifetime.end.p0(i64 4, ptr %3) #9
  ret i32 %5
}

; Function Attrs: nounwind uwtable
define hidden i32 @mbedtls_lms_import_public_key(ptr noundef %0, ptr noundef %1, i64 noundef %2) #0 {
  %4 = alloca i32, align 4
  %5 = alloca ptr, align 8
  %6 = alloca ptr, align 8
  %7 = alloca i64, align 8
  %8 = alloca i32, align 4
  %9 = alloca i32, align 4
  %10 = alloca i32, align 4
  store ptr %0, ptr %5, align 8, !tbaa !3
  store ptr %1, ptr %6, align 8, !tbaa !7
  store i64 %2, ptr %7, align 8, !tbaa !9
  call void @llvm.lifetime.start.p0(i64 4, ptr %8) #9
  call void @llvm.lifetime.start.p0(i64 4, ptr %9) #9
  %11 = load ptr, ptr %6, align 8, !tbaa !7
  %12 = getelementptr inbounds i8, ptr %11, i64 0
  %13 = call i32 @mbedtls_get_unaligned_uint32(ptr noundef %12)
  %14 = call i32 @llvm.bswap.i32(i32 %13)
  store i32 %14, ptr %8, align 4, !tbaa !11
  %15 = load i32, ptr %8, align 4, !tbaa !11
  %16 = icmp ne i32 %15, 6
  br i1 %16, label %17, label %18

17:                                               ; preds = %3
  store i32 -17, ptr %4, align 4
  store i32 1, ptr %10, align 4
  br label %67

18:                                               ; preds = %3
  %19 = load i32, ptr %8, align 4, !tbaa !11
  %20 = load ptr, ptr %5, align 8, !tbaa !3
  %21 = getelementptr inbounds nuw %struct.mbedtls_lms_public_t, ptr %20, i32 0, i32 0
  %22 = getelementptr inbounds nuw %struct.mbedtls_lms_parameters_t, ptr %21, i32 0, i32 2
  store i32 %19, ptr %22, align 4, !tbaa !13
  %23 = load i64, ptr %7, align 8, !tbaa !9
  %24 = load ptr, ptr %5, align 8, !tbaa !3
  %25 = getelementptr inbounds nuw %struct.mbedtls_lms_public_t, ptr %24, i32 0, i32 0
  %26 = getelementptr inbounds nuw %struct.mbedtls_lms_parameters_t, ptr %25, i32 0, i32 2
  %27 = load i32, ptr %26, align 4, !tbaa !13
  %28 = icmp eq i32 %27, 6
  %29 = select i1 %28, i32 32, i32 0
  %30 = add i32 24, %29
  %31 = zext i32 %30 to i64
  %32 = icmp ne i64 %23, %31
  br i1 %32, label %33, label %34

33:                                               ; preds = %18
  store i32 -17, ptr %4, align 4
  store i32 1, ptr %10, align 4
  br label %67

34:                                               ; preds = %18
  %35 = load ptr, ptr %6, align 8, !tbaa !7
  %36 = getelementptr inbounds i8, ptr %35, i64 4
  %37 = call i32 @mbedtls_get_unaligned_uint32(ptr noundef %36)
  %38 = call i32 @llvm.bswap.i32(i32 %37)
  store i32 %38, ptr %9, align 4, !tbaa !11
  %39 = load i32, ptr %9, align 4, !tbaa !11
  %40 = icmp ne i32 %39, 4
  br i1 %40, label %41, label %42

41:                                               ; preds = %34
  store i32 -17, ptr %4, align 4
  store i32 1, ptr %10, align 4
  br label %67

42:                                               ; preds = %34
  %43 = load i32, ptr %9, align 4, !tbaa !11
  %44 = load ptr, ptr %5, align 8, !tbaa !3
  %45 = getelementptr inbounds nuw %struct.mbedtls_lms_public_t, ptr %44, i32 0, i32 0
  %46 = getelementptr inbounds nuw %struct.mbedtls_lms_parameters_t, ptr %45, i32 0, i32 1
  store i32 %43, ptr %46, align 4, !tbaa !16
  %47 = load ptr, ptr %5, align 8, !tbaa !3
  %48 = getelementptr inbounds nuw %struct.mbedtls_lms_public_t, ptr %47, i32 0, i32 0
  %49 = getelementptr inbounds nuw %struct.mbedtls_lms_parameters_t, ptr %48, i32 0, i32 0
  %50 = getelementptr inbounds [16 x i8], ptr %49, i64 0, i64 0
  %51 = load ptr, ptr %6, align 8, !tbaa !7
  %52 = getelementptr inbounds nuw i8, ptr %51, i64 8
  call void @llvm.memcpy.p0.p0.i64(ptr align 4 %50, ptr align 1 %52, i64 16, i1 false)
  %53 = load ptr, ptr %5, align 8, !tbaa !3
  %54 = getelementptr inbounds nuw %struct.mbedtls_lms_public_t, ptr %53, i32 0, i32 1
  %55 = getelementptr inbounds [32 x i8], ptr %54, i64 0, i64 0
  %56 = load ptr, ptr %6, align 8, !tbaa !7
  %57 = getelementptr inbounds nuw i8, ptr %56, i64 24
  %58 = load ptr, ptr %5, align 8, !tbaa !3
  %59 = getelementptr inbounds nuw %struct.mbedtls_lms_public_t, ptr %58, i32 0, i32 0
  %60 = getelementptr inbounds nuw %struct.mbedtls_lms_parameters_t, ptr %59, i32 0, i32 2
  %61 = load i32, ptr %60, align 4, !tbaa !13
  %62 = icmp eq i32 %61, 6
  %63 = select i1 %62, i32 32, i32 0
  %64 = sext i32 %63 to i64
  call void @llvm.memcpy.p0.p0.i64(ptr align 4 %55, ptr align 1 %57, i64 %64, i1 false)
  %65 = load ptr, ptr %5, align 8, !tbaa !3
  %66 = getelementptr inbounds nuw %struct.mbedtls_lms_public_t, ptr %65, i32 0, i32 2
  store i8 1, ptr %66, align 4, !tbaa !17
  store i32 0, ptr %4, align 4
  store i32 1, ptr %10, align 4
  br label %67

67:                                               ; preds = %42, %41, %33, %17
  call void @llvm.lifetime.end.p0(i64 4, ptr %9) #9
  call void @llvm.lifetime.end.p0(i64 4, ptr %8) #9
  %68 = load i32, ptr %4, align 4
  ret i32 %68
}