; Function Attrs: mustprogress nofree norecurse nosync nounwind willreturn memory(argmem: readwrite) uwtable
define hidden range(i32 -17, 1) i32 @mbedtls_lms_import_public_key(ptr noundef writeonly captures(none) %0, ptr noundef readonly captures(none) %1, i64 noundef %2) local_unnamed_addr #4 {
  %.0.copyload.i = load i32, ptr %1, align 1
  %.not = icmp eq i32 %.0.copyload.i, 100663296
  br i1 %.not, label %4, label %14

4:                                                ; preds = %3
  %5 = getelementptr inbounds nuw i8, ptr %0, i64 20
  store i32 6, ptr %5, align 4, !tbaa !3
  %.not18 = icmp eq i64 %2, 56
  br i1 %.not18, label %6, label %14

6:                                                ; preds = %4
  %7 = getelementptr inbounds nuw i8, ptr %1, i64 4
  %.0.copyload.i20 = load i32, ptr %7, align 1
  %.not19 = icmp eq i32 %.0.copyload.i20, 67108864
  br i1 %.not19, label %8, label %14

8:                                                ; preds = %6
  %9 = getelementptr inbounds nuw i8, ptr %0, i64 16
  store i32 4, ptr %9, align 4, !tbaa !9
  %10 = getelementptr inbounds nuw i8, ptr %1, i64 8
  tail call void @llvm.memcpy.p0.p0.i64(ptr noundef nonnull align 4 dereferenceable(16) %0, ptr noundef nonnull align 1 dereferenceable(16) %10, i64 16, i1 false)
  %11 = getelementptr inbounds nuw i8, ptr %0, i64 24
  %12 = getelementptr inbounds nuw i8, ptr %1, i64 24
  tail call void @llvm.memcpy.p0.p0.i64(ptr noundef nonnull align 4 dereferenceable(32) %11, ptr noundef nonnull align 1 dereferenceable(32) %12, i64 32, i1 false)
  %13 = getelementptr inbounds nuw i8, ptr %0, i64 56
  store i8 1, ptr %13, align 4, !tbaa !10
  br label %14

14:                                               ; preds = %6, %4, %3, %8
  %.0 = phi i32 [ 0, %8 ], [ -17, %3 ], [ -17, %4 ], [ -17, %6 ]
  ret i32 %.0
}